; Function Attrs: nounwind sspstrong uwtable
define internal i64 @rb_io_stat(i64 noundef %0) #0 {
  %2 = alloca %struct.stat, align 8
  call void @llvm.lifetime.start.p0(i64 144, ptr nonnull %2) #22
  %3 = tail call i64 @rb_io_taint_check(i64 noundef %0) #22
  %4 = inttoptr i64 %3 to ptr
  %5 = getelementptr inbounds nuw i8, ptr %4, i64 16
  %6 = load ptr, ptr %5, align 8, !tbaa !33
  tail call void @rb_io_check_closed(ptr noundef %6) #22
  %7 = getelementptr inbounds nuw i8, ptr %6, i64 16
  %8 = load i32, ptr %7, align 8, !tbaa !36
  %9 = call i32 @fstat(i32 noundef %8, ptr noundef nonnull %2) #22
  %10 = icmp eq i32 %9, -1
  br i1 %10, label %11, label %16

11:                                               ; preds = %1
  %12 = tail call ptr @rb_errno_ptr() #22
  %13 = load i32, ptr %12, align 4, !tbaa !26
  %14 = getelementptr inbounds nuw i8, ptr %6, i64 32
  %15 = load i64, ptr %14, align 8, !tbaa !74
  tail call void @rb_syserr_fail_path_in(ptr noundef nonnull @__func__.rb_io_stat, i32 noundef %13, i64 noundef %15) #24
  unreachable

16:                                               ; preds = %1
  %17 = load i64, ptr @rb_cStat, align 8, !tbaa !12
  %18 = tail call i64 @rb_data_typed_object_zalloc(i64 noundef %17, i64 noundef 152, ptr noundef nonnull @stat_data_type) #22
  %19 = inttoptr i64 %18 to ptr
  %20 = getelementptr inbounds nuw i8, ptr %19, i64 24
  %21 = load i64, ptr %20, align 8, !tbaa !21
  %22 = and i64 %21, 2
  %.not.i.i.i = icmp eq i64 %22, 0
  %23 = getelementptr i8, ptr %19, i64 32
  br i1 %.not.i.i.i, label %24, label %rb_stat_new.exit

24:                                               ; preds = %16
  %25 = load ptr, ptr %23, align 8, !tbaa !24
  br label %rb_stat_new.exit

rb_stat_new.exit:                                 ; preds = %16, %24
  %26 = phi ptr [ %25, %24 ], [ %23, %16 ]
  call void @llvm.memcpy.p0.p0.i64(ptr noundef nonnull align 8 dereferenceable(144) %26, ptr noundef nonnull readonly align 8 dereferenceable(144) %2, i64 144, i1 false), !tbaa.struct !25
  %27 = getelementptr inbounds nuw i8, ptr %26, i64 144
  store i8 1, ptr %27, align 8, !tbaa !28
  call void @llvm.lifetime.end.p0(i64 144, ptr nonnull %2) #22
  ret i64 %18
}